; Function Attrs: nounwind uwtable
define i32 @evconnlistener_enable(ptr noundef %0) local_unnamed_addr #0 {
  %2 = getelementptr inbounds nuw i8, ptr %0, i64 8
  %3 = load ptr, ptr %2, align 8
  %.not = icmp eq ptr %3, null
  br i1 %.not, label %7, label %4

4:                                                ; preds = %1
  %5 = load ptr, ptr getelementptr inbounds nuw (i8, ptr @evthread_lock_fns_, i64 24), align 8
  %6 = tail call i32 %5(i32 noundef 0, ptr noundef nonnull %3) #6
  br label %7

7:                                                ; preds = %4, %1
  %8 = getelementptr inbounds nuw i8, ptr %0, i64 52
  %9 = load i8, ptr %8, align 4
  %10 = or i8 %9, 1
  store i8 %10, ptr %8, align 4
  %11 = getelementptr inbounds nuw i8, ptr %0, i64 16
  %12 = load ptr, ptr %11, align 8
  %.not10 = icmp eq ptr %12, null
  br i1 %.not10, label %17, label %13

13:                                               ; preds = %7
  %14 = load ptr, ptr %0, align 8
  %15 = load ptr, ptr %14, align 8
  %16 = tail call i32 %15(ptr noundef nonnull %0) #6
  br label %17

17:                                               ; preds = %7, %13
  %.0 = phi i32 [ %16, %13 ], [ 0, %7 ]
  %18 = load ptr, ptr %2, align 8
  %.not11 = icmp eq ptr %18, null
  br i1 %.not11, label %22, label %19

19:                                               ; preds = %17
  %20 = load ptr, ptr getelementptr inbounds nuw (i8, ptr @evthread_lock_fns_, i64 32), align 8
  %21 = tail call i32 %20(i32 noundef 0, ptr noundef nonnull %18) #6
  br label %22

22:                                               ; preds = %19, %17
  ret i32 %.0
}